target datalayout = "e-m:e-p270:32:32-p271:32:32-p272:64:64-i64:64-i128:128-f80:128-n8:16:32:64-S128"
target triple = "x86_64-pc-linux-gnu"

%struct.jit_State = type { %struct.GCtrace, ptr, ptr, ptr, ptr, ptr, ptr, i32, i32, i32, i8, i8, %struct.IRType1, i8, %struct.FoldState, ptr, i32, i32, i32, i32, i32, i32, i32, [1 x i32], [5 x %union.TValue], [3 x %union.TValue], ptr, i32, i32, i32, i32, ptr, ptr, i32, i32, i8, ptr, i32, i32, i16, [101 x i16], [258 x i32], [15 x i32], [16 x ptr], [64 x %struct.HotPenalty], i32, [16 x %struct.BPropEntry], i32, %struct.ScEvEntry, ptr, i32, i32, i32, ptr, i32, i32, ptr, ptr, ptr, i64, i64, %union.TValue, ptr, i32, i32 }
%struct.GCtrace = type { %struct.GCRef, i8, i8, i16, i32, i32, %struct.GCRef, ptr, i32, i32, ptr, ptr, %struct.GCRef, %struct.MRef, i32, i32, ptr, i32, i16, i16, i16, i16, i16, i16, i16, i8, i8, i8, i8 }
%struct.GCRef = type { i64 }
%struct.MRef = type { i64 }
%struct.IRType1 = type { i8 }
%struct.FoldState = type { %union.IRIns, [2 x %union.IRIns], [2 x %union.IRIns] }
%union.IRIns = type { %struct.GCRef }
%struct.HotPenalty = type { %struct.MRef, i16, i16 }
%struct.BPropEntry = type { i16, i16, i32 }
%struct.ScEvEntry = type { %struct.MRef, i16, i16, i16, i16, %struct.IRType1, i8 }
%union.TValue = type { i64 }
%struct.anon.0 = type { i32, %struct.IRType1, i8, i8, i8 }

; Function Attrs: nounwind uwtable
define internal i32 @fold_kfold_numcomp(ptr noundef %0) #0 {
  %2 = alloca ptr, align 8
  store ptr %0, ptr %2, align 8, !tbaa !4
  %3 = load ptr, ptr %2, align 8, !tbaa !4
  %4 = getelementptr inbounds nuw %struct.jit_State, ptr %3, i32 0, i32 14
  %5 = getelementptr inbounds nuw %struct.FoldState, ptr %4, i32 0, i32 1
  %6 = getelementptr inbounds [2 x %union.IRIns], ptr %5, i64 0, i64 1
  %7 = load double, ptr %6, align 8, !tbaa !29
  %8 = load ptr, ptr %2, align 8, !tbaa !4
  %9 = getelementptr inbounds nuw %struct.jit_State, ptr %8, i32 0, i32 14
  %10 = getelementptr inbounds nuw %struct.FoldState, ptr %9, i32 0, i32 2
  %11 = getelementptr inbounds [2 x %union.IRIns], ptr %10, i64 0, i64 1
  %12 = load double, ptr %11, align 8, !tbaa !29
  %13 = load ptr, ptr %2, align 8, !tbaa !4
  %14 = getelementptr inbounds nuw %struct.jit_State, ptr %13, i32 0, i32 14
  %15 = getelementptr inbounds nuw %struct.FoldState, ptr %14, i32 0, i32 0
  %16 = getelementptr inbounds nuw %struct.anon.0, ptr %15, i32 0, i32 2
  %17 = load i8, ptr %16, align 1, !tbaa !29
  %18 = zext i8 %17 to i32
  %19 = call i32 @lj_ir_numcmp(double noundef %7, double noundef %12, i32 noundef %18)
  %20 = add i32 3, %19
  ret i32 %20
}