; Function Attrs: nounwind uwtable
define internal i32 @fold_kfold_numcomp(ptr noundef readonly captures(none) %0) #0 {
  %2 = getelementptr inbounds nuw i8, ptr %0, i64 200
  %3 = load double, ptr %2, align 8, !tbaa !28
  %4 = getelementptr inbounds nuw i8, ptr %0, i64 216
  %5 = load double, ptr %4, align 8, !tbaa !28
  %6 = getelementptr inbounds nuw i8, ptr %0, i64 189
  %7 = load i8, ptr %6, align 1, !tbaa !28
  %8 = zext i8 %7 to i32
  %9 = tail call i32 @lj_ir_numcmp(double noundef %3, double noundef %5, i32 noundef %8) #12
  %10 = add i32 %9, 3
  ret i32 %10
}